; Function Attrs: mustprogress nounwind uwtable
define hidden noundef ptr @_ZN8PhaseGVN11apply_idealEP4Nodeb(ptr noundef nonnull align 8 dereferenceable(2400) %0, ptr noundef %1, i1 noundef zeroext %2) local_unnamed_addr #0 align 2 {
  %4 = load ptr, ptr @_ZN10BarrierSet12_barrier_setE, align 8
  %5 = getelementptr inbounds i8, ptr %4, i64 40
  %6 = load ptr, ptr %5, align 8
  %7 = load ptr, ptr %6, align 8
  %8 = getelementptr inbounds i8, ptr %7, i64 120
  %9 = load ptr, ptr %8, align 8
  %10 = tail call noundef ptr %9(ptr noundef nonnull align 8 dereferenceable(8) %6, ptr noundef nonnull %0, ptr noundef %1, i1 noundef zeroext %2) #16
  %11 = icmp eq ptr %10, null
  br i1 %11, label %12, label %17

12:                                               ; preds = %3
  %13 = load ptr, ptr %1, align 8
  %14 = getelementptr inbounds i8, ptr %13, i64 72
  %15 = load ptr, ptr %14, align 8
  %16 = tail call noundef ptr %15(ptr noundef nonnull align 8 dereferenceable(52) %1, ptr noundef nonnull %0, i1 noundef zeroext %2) #16
  br label %17

17:                                               ; preds = %12, %3
  %.0 = phi ptr [ %16, %12 ], [ %10, %3 ]
  ret ptr %.0
}